target datalayout = "e-m:e-p270:32:32-p271:32:32-p272:64:64-i64:64-i128:128-f80:128-n8:16:32:64-S128"
target triple = "x86_64-pc-linux-gnu"

; Function Attrs: nounwind uwtable
define internal void @erosion(ptr noundef %0, ptr noundef %1, i32 noundef %2, i32 noundef %3, ptr noundef %4, i32 noundef %5, i32 noundef %6) #1 {
  %8 = alloca ptr, align 8
  %9 = alloca ptr, align 8
  %10 = alloca i32, align 4
  %11 = alloca i32, align 4
  %12 = alloca ptr, align 8
  %13 = alloca i32, align 4
  %14 = alloca i32, align 4
  %15 = alloca i32, align 4
  %16 = alloca i32, align 4
  %17 = alloca i32, align 4
  %18 = alloca i32, align 4
  store ptr %0, ptr %8, align 8, !tbaa !64
  store ptr %1, ptr %9, align 8, !tbaa !64
  store i32 %2, ptr %10, align 4, !tbaa !42
  store i32 %3, ptr %11, align 4, !tbaa !42
  store ptr %4, ptr %12, align 8, !tbaa !69
  store i32 %5, ptr %13, align 4, !tbaa !42
  store i32 %6, ptr %14, align 4, !tbaa !42
  call void @llvm.lifetime.start.p0(i64 4, ptr %15) #5
  call void @llvm.lifetime.start.p0(i64 4, ptr %16) #5
  store i32 0, ptr %15, align 4, !tbaa !42
  br label %19

19:                                               ; preds = %98, %7
  %20 = load i32, ptr %15, align 4, !tbaa !42
  %21 = load i32, ptr %10, align 4, !tbaa !42
  %22 = icmp slt i32 %20, %21
  br i1 %22, label %23, label %101

23:                                               ; preds = %19
  call void @llvm.lifetime.start.p0(i64 4, ptr %17) #5
  %24 = load ptr, ptr %9, align 8, !tbaa !64
  %25 = load i32, ptr %15, align 4, !tbaa !42
  %26 = sext i32 %25 to i64
  %27 = getelementptr inbounds i8, ptr %24, i64 %26
  %28 = load i8, ptr %27, align 1, !tbaa !73
  %29 = zext i8 %28 to i32
  store i32 %29, ptr %17, align 4, !tbaa !42
  call void @llvm.lifetime.start.p0(i64 4, ptr %18) #5
  %30 = load i32, ptr %17, align 4, !tbaa !42
  %31 = load i32, ptr %11, align 4, !tbaa !42
  %32 = sub nsw i32 %30, %31
  %33 = icmp sgt i32 %32, 0
  br i1 %33, label %34, label %38

34:                                               ; preds = %23
  %35 = load i32, ptr %17, align 4, !tbaa !42
  %36 = load i32, ptr %11, align 4, !tbaa !42
  %37 = sub nsw i32 %35, %36
  br label %39

38:                                               ; preds = %23
  br label %39

39:                                               ; preds = %38, %34
  %40 = phi i32 [ %37, %34 ], [ 0, %38 ]
  store i32 %40, ptr %18, align 4, !tbaa !42
  store i32 0, ptr %16, align 4, !tbaa !42
  br label %41

41:                                               ; preds = %88, %39
  %42 = load i32, ptr %16, align 4, !tbaa !42
  %43 = icmp slt i32 %42, 8
  br i1 %43, label %44, label %91

44:                                               ; preds = %41
  %45 = load i32, ptr %13, align 4, !tbaa !42
  %46 = load i32, ptr %16, align 4, !tbaa !42
  %47 = shl i32 1, %46
  %48 = and i32 %45, %47
  %49 = icmp ne i32 %48, 0
  br i1 %49, label %50, label %78

50:                                               ; preds = %44
  %51 = load i32, ptr %17, align 4, !tbaa !42
  %52 = load ptr, ptr %12, align 8, !tbaa !69
  %53 = load i32, ptr %16, align 4, !tbaa !42
  %54 = sext i32 %53 to i64
  %55 = getelementptr inbounds ptr, ptr %52, i64 %54
  %56 = load ptr, ptr %55, align 8, !tbaa !64
  %57 = load i32, ptr %15, align 4, !tbaa !42
  %58 = sext i32 %57 to i64
  %59 = getelementptr inbounds i8, ptr %56, i64 %58
  %60 = load i8, ptr %59, align 1, !tbaa !73
  %61 = zext i8 %60 to i32
  %62 = icmp sgt i32 %51, %61
  br i1 %62, label %63, label %74

63:                                               ; preds = %50
  %64 = load ptr, ptr %12, align 8, !tbaa !69
  %65 = load i32, ptr %16, align 4, !tbaa !42
  %66 = sext i32 %65 to i64
  %67 = getelementptr inbounds ptr, ptr %64, i64 %66
  %68 = load ptr, ptr %67, align 8, !tbaa !64
  %69 = load i32, ptr %15, align 4, !tbaa !42
  %70 = sext i32 %69 to i64
  %71 = getelementptr inbounds i8, ptr %68, i64 %70
  %72 = load i8, ptr %71, align 1, !tbaa !73
  %73 = zext i8 %72 to i32
  br label %76

74:                                               ; preds = %50
  %75 = load i32, ptr %17, align 4, !tbaa !42
  br label %76

76:                                               ; preds = %74, %63
  %77 = phi i32 [ %73, %63 ], [ %75, %74 ]
  store i32 %77, ptr %17, align 4, !tbaa !42
  br label %78

78:                                               ; preds = %76, %44
  %79 = load i32, ptr %17, align 4, !tbaa !42
  %80 = load i32, ptr %18, align 4, !tbaa !42
  %81 = icmp sgt i32 %79, %80
  br i1 %81, label %82, label %84

82:                                               ; preds = %78
  %83 = load i32, ptr %17, align 4, !tbaa !42
  br label %86

84:                                               ; preds = %78
  %85 = load i32, ptr %18, align 4, !tbaa !42
  br label %86

86:                                               ; preds = %84, %82
  %87 = phi i32 [ %83, %82 ], [ %85, %84 ]
  store i32 %87, ptr %17, align 4, !tbaa !42
  br label %88

88:                                               ; preds = %86
  %89 = load i32, ptr %16, align 4, !tbaa !42
  %90 = add nsw i32 %89, 1
  store i32 %90, ptr %16, align 4, !tbaa !42
  br label %41, !llvm.loop !78

91:                                               ; preds = %41
  %92 = load i32, ptr %17, align 4, !tbaa !42
  %93 = trunc i32 %92 to i8
  %94 = load ptr, ptr %8, align 8, !tbaa !64
  %95 = load i32, ptr %15, align 4, !tbaa !42
  %96 = sext i32 %95 to i64
  %97 = getelementptr inbounds i8, ptr %94, i64 %96
  store i8 %93, ptr %97, align 1, !tbaa !73
  call void @llvm.lifetime.end.p0(i64 4, ptr %18) #5
  call void @llvm.lifetime.end.p0(i64 4, ptr %17) #5
  br label %98

98:                                               ; preds = %91
  %99 = load i32, ptr %15, align 4, !tbaa !42
  %100 = add nsw i32 %99, 1
  store i32 %100, ptr %15, align 4, !tbaa !42
  br label %19, !llvm.loop !79

101:                                              ; preds = %19
  call void @llvm.lifetime.end.p0(i64 4, ptr %16) #5
  call void @llvm.lifetime.end.p0(i64 4, ptr %15) #5
  ret void
}