; Function Attrs: nofree norecurse nosync nounwind memory(read, argmem: readwrite, inaccessiblemem: none) uwtable
define internal void @erosion(ptr noundef writeonly captures(none) %0, ptr noundef readonly captures(none) %1, i32 noundef %2, i32 noundef %3, ptr noundef readonly captures(none) %4, i32 noundef %5, i32 %6) #5 {
  %8 = icmp sgt i32 %2, 0
  br i1 %8, label %.lr.ph.preheader, label %._crit_edge

.lr.ph.preheader:                                 ; preds = %7
  %wide.trip.count = zext nneg i32 %2 to i64
  br label %.lr.ph

.lr.ph:                                           ; preds = %.lr.ph.preheader, %26
  %indvars.iv34 = phi i64 [ 0, %.lr.ph.preheader ], [ %indvars.iv.next35, %26 ]
  %9 = getelementptr inbounds nuw i8, ptr %1, i64 %indvars.iv34
  %10 = load i8, ptr %9, align 1, !tbaa !61
  %11 = zext i8 %10 to i32
  %12 = sub nsw i32 %11, %3
  br label %13

13:                                               ; preds = %.lr.ph, %23
  %indvars.iv = phi i64 [ 0, %.lr.ph ], [ %indvars.iv.next, %23 ]
  %.02731 = phi i32 [ %11, %.lr.ph ], [ %25, %23 ]
  %14 = trunc nuw nsw i64 %indvars.iv to i32
  %15 = shl nuw nsw i32 1, %14
  %16 = and i32 %15, %5
  %.not = icmp eq i32 %16, 0
  br i1 %.not, label %23, label %17

17:                                               ; preds = %13
  %18 = getelementptr inbounds nuw ptr, ptr %4, i64 %indvars.iv
  %19 = load ptr, ptr %18, align 8, !tbaa !56
  %20 = getelementptr inbounds nuw i8, ptr %19, i64 %indvars.iv34
  %21 = load i8, ptr %20, align 1, !tbaa !61
  %22 = zext i8 %21 to i32
  %..027 = tail call i32 @llvm.umin.i32(i32 %.02731, i32 %22)
  br label %23

23:                                               ; preds = %17, %13
  %.1 = phi i32 [ %..027, %17 ], [ %.02731, %13 ]
  %24 = tail call i32 @llvm.smax.i32(i32 %12, i32 %.1)
  %25 = tail call i32 @llvm.smax.i32(i32 %24, i32 0)
  %indvars.iv.next = add nuw nsw i64 %indvars.iv, 1
  %exitcond.not = icmp eq i64 %indvars.iv.next, 8
  br i1 %exitcond.not, label %26, label %13, !llvm.loop !66

26:                                               ; preds = %23
  %27 = trunc i32 %25 to i8
  %28 = getelementptr inbounds nuw i8, ptr %0, i64 %indvars.iv34
  store i8 %27, ptr %28, align 1, !tbaa !61
  %indvars.iv.next35 = add nuw nsw i64 %indvars.iv34, 1
  %exitcond37.not = icmp eq i64 %indvars.iv.next35, %wide.trip.count
  br i1 %exitcond37.not, label %._crit_edge, label %.lr.ph, !llvm.loop !67

._crit_edge:                                      ; preds = %26, %7
  ret void
}